; Function Attrs: mustprogress uwtable
define noundef zeroext i1 @_ZNK8facebook5velox9MapVector8isSortedEi(ptr noundef nonnull align 8 dereferenceable(169) %this, i32 noundef %index) local_unnamed_addr #0 align 2 {
entry:
  %vtable = load ptr, ptr %this, align 8
  %vfn = getelementptr inbounds i8, ptr %vtable, i64 32
  %0 = load ptr, ptr %vfn, align 8
  %call = tail call noundef zeroext i1 %0(ptr noundef nonnull align 8 dereferenceable(99) %this, i32 noundef %index)
  br i1 %call, label %return, label %if.end

if.end:                                           ; preds = %entry
  %rawOffsets_ = getelementptr inbounds i8, ptr %this, i64 112
  %1 = load ptr, ptr %rawOffsets_, align 8
  %idxprom = sext i32 %index to i64
  %arrayidx = getelementptr inbounds i32, ptr %1, i64 %idxprom
  %2 = load i32, ptr %arrayidx, align 4
  %rawSizes_ = getelementptr inbounds i8, ptr %this, i64 128
  %3 = load ptr, ptr %rawSizes_, align 8
  %arrayidx3 = getelementptr inbounds i32, ptr %3, i64 %idxprom
  %4 = load i32, ptr %arrayidx3, align 4
  %cmp7 = icmp sgt i32 %4, 1
  br i1 %cmp7, label %for.body.lr.ph, label %return

for.body.lr.ph:                                   ; preds = %if.end
  %keys_ = getelementptr inbounds i8, ptr %this, i64 136
  br label %for.body

for.body:                                         ; preds = %_ZNK8facebook5velox10BaseVector7compareEPKS1_ii.exit, %for.body.lr.ph
  %i.08 = phi i32 [ 1, %for.body.lr.ph ], [ %inc, %_ZNK8facebook5velox10BaseVector7compareEPKS1_ii.exit ]
  %5 = load ptr, ptr %keys_, align 8
  %add = add nsw i32 %i.08, %2
  %sub = add nsw i32 %add, -1
  %vtable.i = load ptr, ptr %5, align 8
  %vfn.i = getelementptr inbounds i8, ptr %vtable.i, i64 80
  %6 = load ptr, ptr %vfn.i, align 8
  %call.i = tail call i64 %6(ptr noundef nonnull align 8 dereferenceable(99) %5, ptr noundef nonnull %5, i32 noundef %sub, i32 noundef %add, i64 257)
  %7 = and i64 %call.i, 4294967296
  %tobool.i.not.i.i = icmp eq i64 %7, 0
  br i1 %tobool.i.not.i.i, label %if.end.i.i, label %_ZNK8facebook5velox10BaseVector7compareEPKS1_ii.exit

if.end.i.i:                                       ; preds = %for.body
  tail call void @_ZSt27__throw_bad_optional_accessv() #23
  unreachable

_ZNK8facebook5velox10BaseVector7compareEPKS1_ii.exit: ; preds = %for.body
  %8 = and i64 %call.i, 2147483648
  %cmp9.not = icmp ne i64 %8, 0
  %inc = add nuw nsw i32 %i.08, 1
  %exitcond.not = icmp ne i32 %inc, %4
  %or.cond.not = select i1 %cmp9.not, i1 %exitcond.not, i1 false
  br i1 %or.cond.not, label %for.body, label %return, !llvm.loop !90

return:                                           ; preds = %_ZNK8facebook5velox10BaseVector7compareEPKS1_ii.exit, %if.end, %entry
  %retval.0 = phi i1 [ true, %entry ], [ true, %if.end ], [ %cmp9.not, %_ZNK8facebook5velox10BaseVector7compareEPKS1_ii.exit ]
  ret i1 %retval.0
}